target datalayout = "e-m:e-p270:32:32-p271:32:32-p272:64:64-i64:64-i128:128-f80:128-n8:16:32:64-S128"
target triple = "x86_64-pc-linux-gnu"

%"class.std::__cxx11::basic_string" = type { %"struct.std::__cxx11::basic_string<char>::_Alloc_hider", i64, %union.anon }
%"struct.std::__cxx11::basic_string<char>::_Alloc_hider" = type { ptr }
%union.anon = type { i64, [8 x i8] }
%"class.osgeo::proj::OneTimeTIFFTagInit" = type { i8 }
%"struct.std::__detail::_Hash_node_base" = type { ptr }
%"struct.std::__detail::_Prime_rehash_policy" = type { float, i64 }
%"struct.std::__detail::_List_node_header" = type { %"struct.std::__detail::_List_node_base", i64 }
%"struct.std::__detail::_List_node_base" = type { ptr, ptr }
%"class.std::unique_ptr" = type { %"struct.std::__uniq_ptr_data" }
%"struct.std::__uniq_ptr_data" = type { %"class.std::__uniq_ptr_impl" }
%"class.std::__uniq_ptr_impl" = type { %"class.std::tuple" }
%"class.std::tuple" = type { %"struct.std::_Tuple_impl" }
%"struct.std::_Tuple_impl" = type { %"struct.std::_Head_base.17" }
%"struct.std::_Head_base.17" = type { ptr }
%"class.osgeo::proj::BlockCache" = type { %"class.osgeo::proj::lru11::Cache.26" }
%"class.osgeo::proj::lru11::Cache.26" = type { ptr, [8 x i8], %"class.std::unordered_map.27", %"class.std::__cxx11::list.41", i64, i64 }
%"class.std::unordered_map.27" = type { %"class.std::_Hashtable.28" }
%"class.std::_Hashtable.28" = type { ptr, i64, %"struct.std::__detail::_Hash_node_base", i64, %"struct.std::__detail::_Prime_rehash_policy", ptr }
%"class.std::__cxx11::list.41" = type { %"class.std::__cxx11::_List_base.42" }
%"class.std::__cxx11::_List_base.42" = type { %"struct.std::__cxx11::_List_base<osgeo::proj::lru11::KeyValuePair<unsigned long, std::vector<unsigned char>>, std::allocator<osgeo::proj::lru11::KeyValuePair<unsigned long, std::vector<unsigned char>>>>::_List_impl" }
%"struct.std::__cxx11::_List_base<osgeo::proj::lru11::KeyValuePair<unsigned long, std::vector<unsigned char>>, std::allocator<osgeo::proj::lru11::KeyValuePair<unsigned long, std::vector<unsigned char>>>>::_List_impl" = type { %"struct.std::__detail::_List_node_header" }
%"class.osgeo::proj::GTiffDataset" = type { ptr, ptr, %"class.std::unique_ptr", ptr, i8, i32, i64, %"class.std::__cxx11::basic_string", %"class.osgeo::proj::BlockCache" }

@_ZN5osgeo4proj18OneTimeTIFFTagInit14ParentExtenderE = hidden global ptr null, align 8
@_ZZN5osgeo4proj12GTiffDataset8openTIFFERKNSt7__cxx1112basic_stringIcSt11char_traitsIcESaIcEEEE18oneTimeTIFFTagInit = internal global %"class.osgeo::proj::OneTimeTIFFTagInit" zeroinitializer, align 1
@_ZGVZN5osgeo4proj12GTiffDataset8openTIFFERKNSt7__cxx1112basic_stringIcSt11char_traitsIcESaIcEEEE18oneTimeTIFFTagInit = internal global i64 0, align 8
@.str.12 = private unnamed_addr constant [2 x i8] c"r\00", align 1

; Function Attrs: mustprogress uwtable
define available_externally noundef nonnull align 8 dereferenceable(32) ptr @_ZNSt7__cxx1112basic_stringIcSt11char_traitsIcESaIcEE6assignERKS4_(ptr noundef nonnull align 8 dereferenceable(32) %0, ptr noundef nonnull align 8 dereferenceable(32) %1) #1 align 2 {
  %3 = alloca ptr, align 8
  %4 = alloca ptr, align 8
  store ptr %0, ptr %3, align 8, !tbaa !24
  store ptr %1, ptr %4, align 8, !tbaa !24
  %5 = load ptr, ptr %3, align 8
  %6 = load ptr, ptr %4, align 8, !tbaa !24
  call void @_ZNSt7__cxx1112basic_stringIcSt11char_traitsIcESaIcEE9_M_assignERKS4_(ptr noundef nonnull align 8 dereferenceable(32) %5, ptr noundef nonnull align 8 dereferenceable(32) %6)
  ret ptr %5
}

; Function Attrs: mustprogress nounwind uwtable
define available_externally noundef ptr @_ZNKSt7__cxx1112basic_stringIcSt11char_traitsIcESaIcEE7_M_dataEv(ptr noundef nonnull align 8 dereferenceable(32) %0) #0 align 2 {
  %2 = alloca ptr, align 8
  store ptr %0, ptr %2, align 8, !tbaa !24
  %3 = load ptr, ptr %2, align 8
  %4 = getelementptr inbounds nuw %"class.std::__cxx11::basic_string", ptr %3, i32 0, i32 0
  %5 = getelementptr inbounds nuw %"struct.std::__cxx11::basic_string<char>::_Alloc_hider", ptr %4, i32 0, i32 0
  %6 = load ptr, ptr %5, align 8, !tbaa !701
  ret ptr %6
}

; Function Attrs: mustprogress uwtable
define available_externally noundef nonnull align 8 dereferenceable(32) ptr @_ZNSt7__cxx1112basic_stringIcSt11char_traitsIcESaIcEEaSERKS4_(ptr noundef nonnull align 8 dereferenceable(32) %0, ptr noundef nonnull align 8 dereferenceable(32) %1) #1 align 2 {
  %3 = alloca ptr, align 8
  %4 = alloca ptr, align 8
  store ptr %0, ptr %3, align 8, !tbaa !24
  store ptr %1, ptr %4, align 8, !tbaa !24
  %5 = load ptr, ptr %3, align 8
  %6 = load ptr, ptr %4, align 8, !tbaa !24
  %7 = call noundef nonnull align 8 dereferenceable(32) ptr @_ZNSt7__cxx1112basic_stringIcSt11char_traitsIcESaIcEE6assignERKS4_(ptr noundef nonnull align 8 dereferenceable(32) %5, ptr noundef nonnull align 8 dereferenceable(32) %6)
  ret ptr %7
}

; Function Attrs: mustprogress nounwind uwtable
define available_externally noundef ptr @_ZNKSt7__cxx1112basic_stringIcSt11char_traitsIcESaIcEE5c_strEv(ptr noundef nonnull align 8 dereferenceable(32) %0) #0 align 2 {
  %2 = alloca ptr, align 8
  store ptr %0, ptr %2, align 8, !tbaa !24
  %3 = load ptr, ptr %2, align 8
  %4 = call noundef ptr @_ZNKSt7__cxx1112basic_stringIcSt11char_traitsIcESaIcEE7_M_dataEv(ptr noundef nonnull align 8 dereferenceable(32) %3)
  ret ptr %4
}

; Function Attrs: mustprogress uwtable
define linkonce_odr hidden void @_ZN5osgeo4proj18OneTimeTIFFTagInitC2Ev(ptr noundef nonnull align 1 dereferenceable(1) %0) unnamed_addr #1 comdat align 2 {
  %2 = alloca ptr, align 8
  store ptr %0, ptr %2, align 8, !tbaa !236
  %3 = call ptr @TIFFSetTagExtender(ptr noundef @_ZN5osgeo4proj18OneTimeTIFFTagInit16GTiffTagExtenderEP4tiff)
  store ptr %3, ptr @_ZN5osgeo4proj18OneTimeTIFFTagInit14ParentExtenderE, align 8, !tbaa !85
  ret void
}

; Function Attrs: mustprogress uwtable
define hidden noundef zeroext i1 @_ZN5osgeo4proj12GTiffDataset8openTIFFERKNSt7__cxx1112basic_stringIcSt11char_traitsIcESaIcEEE(ptr noundef nonnull align 8 dereferenceable(192) %0, ptr noundef nonnull align 8 dereferenceable(32) %1) #1 align 2 personality ptr @__gxx_personality_v0 {
  %3 = alloca ptr, align 8
  %4 = alloca ptr, align 8
  %5 = alloca ptr, align 8
  %6 = alloca i32, align 4
  store ptr %0, ptr %3, align 8, !tbaa !216
  store ptr %1, ptr %4, align 8, !tbaa !24
  %7 = load ptr, ptr %3, align 8
  %8 = load atomic i8, ptr @_ZGVZN5osgeo4proj12GTiffDataset8openTIFFERKNSt7__cxx1112basic_stringIcSt11char_traitsIcESaIcEEEE18oneTimeTIFFTagInit acquire, align 8
  %9 = icmp eq i8 %8, 0
  br i1 %9, label %10, label %15, !prof !234

10:                                               ; preds = %2
  %11 = call i32 @__cxa_guard_acquire(ptr @_ZGVZN5osgeo4proj12GTiffDataset8openTIFFERKNSt7__cxx1112basic_stringIcSt11char_traitsIcESaIcEEEE18oneTimeTIFFTagInit) #6
  %12 = icmp ne i32 %11, 0
  br i1 %12, label %13, label %15

13:                                               ; preds = %10
  invoke void @_ZN5osgeo4proj18OneTimeTIFFTagInitC2Ev(ptr noundef nonnull align 1 dereferenceable(1) @_ZZN5osgeo4proj12GTiffDataset8openTIFFERKNSt7__cxx1112basic_stringIcSt11char_traitsIcESaIcEEEE18oneTimeTIFFTagInit)
          to label %14 unwind label %27

14:                                               ; preds = %13
  call void @__cxa_guard_release(ptr @_ZGVZN5osgeo4proj12GTiffDataset8openTIFFERKNSt7__cxx1112basic_stringIcSt11char_traitsIcESaIcEEEE18oneTimeTIFFTagInit) #6
  br label %15

15:                                               ; preds = %14, %10, %2
  %16 = load ptr, ptr %4, align 8, !tbaa !24
  %17 = call noundef ptr @_ZNKSt7__cxx1112basic_stringIcSt11char_traitsIcESaIcEE5c_strEv(ptr noundef nonnull align 8 dereferenceable(32) %16) #6
  %18 = call ptr @TIFFClientOpen(ptr noundef %17, ptr noundef @.str.12, ptr noundef %7, ptr noundef @_ZN5osgeo4proj12GTiffDataset12tiffReadProcEPvS2_l, ptr noundef @_ZN5osgeo4proj12GTiffDataset13tiffWriteProcEPvS2_l, ptr noundef @_ZN5osgeo4proj12GTiffDataset12tiffSeekProcEPvmi, ptr noundef @_ZN5osgeo4proj12GTiffDataset13tiffCloseProcEPv, ptr noundef @_ZN5osgeo4proj12GTiffDataset12tiffSizeProcEPv, ptr noundef @_ZN5osgeo4proj12GTiffDataset11tiffMapProcEPvPS2_Pm, ptr noundef @_ZN5osgeo4proj12GTiffDataset13tiffUnmapProcEPvS2_m)
  %19 = getelementptr inbounds nuw %"class.osgeo::proj::GTiffDataset", ptr %7, i32 0, i32 3
  store ptr %18, ptr %19, align 8, !tbaa !218
  %20 = load ptr, ptr %4, align 8, !tbaa !24
  %21 = getelementptr inbounds nuw %"class.osgeo::proj::GTiffDataset", ptr %7, i32 0, i32 7
  %22 = call noundef nonnull align 8 dereferenceable(32) ptr @_ZNSt7__cxx1112basic_stringIcSt11char_traitsIcESaIcEEaSERKS4_(ptr noundef nonnull align 8 dereferenceable(32) %21, ptr noundef nonnull align 8 dereferenceable(32) %20)
  %23 = getelementptr inbounds nuw %"class.osgeo::proj::GTiffDataset", ptr %7, i32 0, i32 4
  store i8 1, ptr %23, align 8, !tbaa !235
  %24 = getelementptr inbounds nuw %"class.osgeo::proj::GTiffDataset", ptr %7, i32 0, i32 3
  %25 = load ptr, ptr %24, align 8, !tbaa !218
  %26 = icmp ne ptr %25, null
  ret i1 %26

27:                                               ; preds = %13
  %28 = landingpad { ptr, i32 }
          cleanup
  %29 = extractvalue { ptr, i32 } %28, 0
  store ptr %29, ptr %5, align 8
  %30 = extractvalue { ptr, i32 } %28, 1
  store i32 %30, ptr %6, align 4
  call void @__cxa_guard_abort(ptr @_ZGVZN5osgeo4proj12GTiffDataset8openTIFFERKNSt7__cxx1112basic_stringIcSt11char_traitsIcESaIcEEEE18oneTimeTIFFTagInit) #6
  br label %31

31:                                               ; preds = %27
  %32 = load ptr, ptr %5, align 8
  %33 = load i32, ptr %6, align 4
  %34 = insertvalue { ptr, i32 } poison, ptr %32, 0
  %35 = insertvalue { ptr, i32 } %34, i32 %33, 1
  resume { ptr, i32 } %35
}