; Function Attrs: mustprogress uwtable
define hidden noundef zeroext i1 @_ZN5osgeo4proj12GTiffDataset8openTIFFERKNSt7__cxx1112basic_stringIcSt11char_traitsIcESaIcEEE(ptr noundef nonnull align 8 dereferenceable(192) %0, ptr noundef nonnull align 8 dereferenceable(32) %1) local_unnamed_addr #2 align 2 personality ptr @__gxx_personality_v0 {
  %3 = load atomic i8, ptr @_ZGVZN5osgeo4proj12GTiffDataset8openTIFFERKNSt7__cxx1112basic_stringIcSt11char_traitsIcESaIcEEEE18oneTimeTIFFTagInit acquire, align 8
  %4 = icmp eq i8 %3, 0
  br i1 %4, label %5, label %10, !prof !226

5:                                                ; preds = %2
  %6 = tail call i32 @__cxa_guard_acquire(ptr nonnull @_ZGVZN5osgeo4proj12GTiffDataset8openTIFFERKNSt7__cxx1112basic_stringIcSt11char_traitsIcESaIcEEEE18oneTimeTIFFTagInit) #34
  %.not = icmp eq i32 %6, 0
  br i1 %.not, label %10, label %7

7:                                                ; preds = %5
  %8 = invoke ptr @TIFFSetTagExtender(ptr noundef nonnull @_ZN5osgeo4proj18OneTimeTIFFTagInit16GTiffTagExtenderEP4tiff)
          to label %9 unwind label %18

9:                                                ; preds = %7
  store ptr %8, ptr @_ZN5osgeo4proj18OneTimeTIFFTagInit14ParentExtenderE, align 8, !tbaa !227
  tail call void @__cxa_guard_release(ptr nonnull @_ZGVZN5osgeo4proj12GTiffDataset8openTIFFERKNSt7__cxx1112basic_stringIcSt11char_traitsIcESaIcEEEE18oneTimeTIFFTagInit) #34
  br label %10

10:                                               ; preds = %9, %5, %2
  %11 = load ptr, ptr %1, align 8, !tbaa !25
  %12 = tail call ptr @TIFFClientOpen(ptr noundef %11, ptr noundef nonnull @.str.12, ptr noundef nonnull %0, ptr noundef nonnull @_ZN5osgeo4proj12GTiffDataset12tiffReadProcEPvS2_l, ptr noundef nonnull @_ZN5osgeo4proj12GTiffDataset13tiffWriteProcEPvS2_l, ptr noundef nonnull @_ZN5osgeo4proj12GTiffDataset12tiffSeekProcEPvmi, ptr noundef nonnull @_ZN5osgeo4proj12GTiffDataset13tiffCloseProcEPv, ptr noundef nonnull @_ZN5osgeo4proj12GTiffDataset12tiffSizeProcEPv, ptr noundef nonnull @_ZN5osgeo4proj12GTiffDataset11tiffMapProcEPvPS2_Pm, ptr noundef nonnull @_ZN5osgeo4proj12GTiffDataset13tiffUnmapProcEPvS2_m)
  %13 = getelementptr inbounds nuw i8, ptr %0, i64 24
  store ptr %12, ptr %13, align 8, !tbaa !223
  %14 = getelementptr inbounds nuw i8, ptr %0, i64 48
  tail call void @_ZNSt7__cxx1112basic_stringIcSt11char_traitsIcESaIcEE9_M_assignERKS4_(ptr noundef nonnull align 8 dereferenceable(32) %14, ptr noundef nonnull align 8 dereferenceable(32) %1)
  %15 = getelementptr inbounds nuw i8, ptr %0, i64 32
  store i8 1, ptr %15, align 8, !tbaa !228
  %16 = load ptr, ptr %13, align 8, !tbaa !223
  %17 = icmp ne ptr %16, null
  ret i1 %17

18:                                               ; preds = %7
  %19 = landingpad { ptr, i32 }
          cleanup
  tail call void @__cxa_guard_abort(ptr nonnull @_ZGVZN5osgeo4proj12GTiffDataset8openTIFFERKNSt7__cxx1112basic_stringIcSt11char_traitsIcESaIcEEEE18oneTimeTIFFTagInit) #34
  resume { ptr, i32 } %19
}